; Function Attrs: mustprogress uwtable
define void @_ZNK32pxrInternal_v0_24__pxrReserved__31UsdImagingPointInstancerAdapter18GetLightParamValueERKNS_7UsdPrimERKNS_7SdfPathERKNS_7TfTokenENS_11UsdTimeCodeE(ptr dead_on_unwind noalias writable sret(%"class.pxrInternal_v0_24__pxrReserved__::VtValue") align 8 %0, ptr noundef nonnull align 8 dereferenceable(88) %1, ptr noundef nonnull align 8 dereferenceable(32) %2, ptr noundef nonnull align 4 dereferenceable(8) %3, ptr noundef nonnull align 8 dereferenceable(8) %4, double %5) unnamed_addr #0 align 2 personality ptr @__gxx_personality_v0 {
  %7 = alloca %"class.pxrInternal_v0_24__pxrReserved__::SdfPath", align 4
  %8 = alloca %"struct.pxrInternal_v0_24__pxrReserved__::UsdImagingPointInstancerAdapter::_ProtoPrim", align 8
  %9 = alloca %"class.pxrInternal_v0_24__pxrReserved__::UsdPrim", align 8
  %10 = load ptr, ptr %1, align 8
  %11 = getelementptr inbounds i8, ptr %10, i64 352
  %12 = load ptr, ptr %11, align 8
  %13 = tail call noundef zeroext i1 %12(ptr noundef nonnull align 8 dereferenceable(88) %1, ptr noundef nonnull align 4 dereferenceable(8) %3)
  br i1 %13, label %14, label %84

14:                                               ; preds = %6
  call void @_ZNK32pxrInternal_v0_24__pxrReserved__7SdfPath13GetParentPathEv(ptr dead_on_unwind nonnull writable sret(%"class.pxrInternal_v0_24__pxrReserved__::SdfPath") align 4 %7, ptr noundef nonnull align 4 dereferenceable(8) %3)
  %15 = invoke noundef nonnull align 8 dereferenceable(53) ptr @_ZNK32pxrInternal_v0_24__pxrReserved__31UsdImagingPointInstancerAdapter13_GetProtoPrimERKNS_7SdfPathES3_(ptr noundef nonnull align 8 dereferenceable(88) %1, ptr noundef nonnull align 4 dereferenceable(8) %7, ptr noundef nonnull align 4 dereferenceable(8) %3)
          to label %16 unwind label %76

16:                                               ; preds = %14
  invoke void @_ZN32pxrInternal_v0_24__pxrReserved__31UsdImagingPointInstancerAdapter10_ProtoPrimC2ERKS1_(ptr noundef nonnull align 8 dereferenceable(53) %8, ptr noundef nonnull align 8 dereferenceable(53) %15)
          to label %17 unwind label %76

17:                                               ; preds = %16
  invoke void @_ZNK32pxrInternal_v0_24__pxrReserved__31UsdImagingPointInstancerAdapter16_GetProtoUsdPrimERKNS0_10_ProtoPrimE(ptr dead_on_unwind nonnull writable sret(%"class.pxrInternal_v0_24__pxrReserved__::UsdPrim") align 8 %9, ptr noundef nonnull align 8 dereferenceable(88) %1, ptr noundef nonnull align 8 dereferenceable(53) %8)
          to label %18 unwind label %78

18:                                               ; preds = %17
  %19 = getelementptr inbounds nuw i8, ptr %8, i64 24
  %20 = load ptr, ptr %19, align 8
  %21 = load ptr, ptr %20, align 8
  %22 = getelementptr inbounds i8, ptr %21, i64 344
  %23 = load ptr, ptr %22, align 8
  invoke void %23(ptr dead_on_unwind writable sret(%"class.pxrInternal_v0_24__pxrReserved__::VtValue") align 8 %0, ptr noundef nonnull align 8 dereferenceable(32) %20, ptr noundef nonnull align 8 dereferenceable(32) %9, ptr noundef nonnull align 4 dereferenceable(8) %3, ptr noundef nonnull align 8 dereferenceable(8) %4, double %5)
          to label %24 unwind label %80

24:                                               ; preds = %18
  %25 = getelementptr inbounds nuw i8, ptr %9, i64 24
  %26 = load ptr, ptr %25, align 8
  %27 = ptrtoint ptr %26 to i64
  %28 = and i64 %27, 7
  %.not.i.i.i.i = icmp eq i64 %28, 0
  br i1 %.not.i.i.i.i, label %_ZN32pxrInternal_v0_24__pxrReserved__7TfTokenD2Ev.exit.i.i, label %29

29:                                               ; preds = %24
  %30 = and i64 %27, -8
  %31 = inttoptr i64 %30 to ptr
  %32 = atomicrmw sub ptr %31, i32 2 release, align 4
  br label %_ZN32pxrInternal_v0_24__pxrReserved__7TfTokenD2Ev.exit.i.i

_ZN32pxrInternal_v0_24__pxrReserved__7TfTokenD2Ev.exit.i.i: ; preds = %29, %24
  %33 = getelementptr inbounds nuw i8, ptr %9, i64 16
  %34 = load i32, ptr %33, align 8
  %.not.i.i1.i.i = icmp eq i32 %34, 0
  br i1 %.not.i.i1.i.i, label %_ZN32pxrInternal_v0_24__pxrReserved__7SdfPathD2Ev.exit.i.i, label %35

35:                                               ; preds = %_ZN32pxrInternal_v0_24__pxrReserved__7TfTokenD2Ev.exit.i.i
  %36 = and i32 %34, 255
  %37 = lshr i32 %34, 8
  %38 = zext nneg i32 %36 to i64
  %39 = getelementptr inbounds [257 x ptr], ptr @_ZN32pxrInternal_v0_24__pxrReserved__8Sdf_PoolINS_15Sdf_PathPrimTagELj24ELj8ELj16384EE13_regionStartsE, i64 0, i64 %38
  %40 = load ptr, ptr %39, align 8
  %41 = mul nuw nsw i32 %37, 24
  %42 = zext nneg i32 %41 to i64
  %43 = getelementptr inbounds i8, ptr %40, i64 %42
  %44 = getelementptr inbounds nuw i8, ptr %43, i64 8
  %45 = atomicrmw sub ptr %44, i32 1 seq_cst, align 4
  %46 = and i32 %45, 2147483647
  %47 = icmp eq i32 %46, 1
  br i1 %47, label %48, label %_ZN32pxrInternal_v0_24__pxrReserved__7SdfPathD2Ev.exit.i.i

48:                                               ; preds = %35
  invoke void @_ZNK32pxrInternal_v0_24__pxrReserved__12Sdf_PathNode8_DestroyEv(ptr noundef nonnull align 8 dereferenceable(16) %43)
          to label %_ZN32pxrInternal_v0_24__pxrReserved__7SdfPathD2Ev.exit.i.i unwind label %49

49:                                               ; preds = %48
  %50 = landingpad { ptr, i32 }
          catch ptr null
  %51 = extractvalue { ptr, i32 } %50, 0
  call void @__clang_call_terminate(ptr %51) #28
  unreachable

_ZN32pxrInternal_v0_24__pxrReserved__7SdfPathD2Ev.exit.i.i: ; preds = %48, %35, %_ZN32pxrInternal_v0_24__pxrReserved__7TfTokenD2Ev.exit.i.i
  %52 = getelementptr inbounds nuw i8, ptr %9, i64 8
  %53 = load ptr, ptr %52, align 8
  %.not.i.i.i.i.i = icmp eq ptr %53, null
  br i1 %.not.i.i.i.i.i, label %_ZN32pxrInternal_v0_24__pxrReserved__7UsdPrimD2Ev.exit, label %54

54:                                               ; preds = %_ZN32pxrInternal_v0_24__pxrReserved__7SdfPathD2Ev.exit.i.i
  %55 = getelementptr inbounds nuw i8, ptr %53, i64 48
  %56 = atomicrmw sub ptr %55, i64 1 release, align 8
  %.not1.i.i.i.i.i = icmp eq i64 %56, 1
  br i1 %.not1.i.i.i.i.i, label %57, label %_ZN32pxrInternal_v0_24__pxrReserved__7UsdPrimD2Ev.exit

57:                                               ; preds = %54
  call void @_ZN32pxrInternal_v0_24__pxrReserved__12Usd_PrimDataD1Ev(ptr noundef nonnull align 8 dereferenceable(64) %53) #26
  call void @_ZdlPvm(ptr noundef nonnull %53, i64 noundef 64) #27
  br label %_ZN32pxrInternal_v0_24__pxrReserved__7UsdPrimD2Ev.exit

_ZN32pxrInternal_v0_24__pxrReserved__7UsdPrimD2Ev.exit: ; preds = %_ZN32pxrInternal_v0_24__pxrReserved__7SdfPathD2Ev.exit.i.i, %54, %57
  call void @_ZN32pxrInternal_v0_24__pxrReserved__31UsdImagingPointInstancerAdapter10_ProtoPrimD2Ev(ptr noundef nonnull align 8 dereferenceable(53) %8) #26
  %58 = load i32, ptr %7, align 4
  %.not.i.i = icmp eq i32 %58, 0
  br i1 %.not.i.i, label %_ZN32pxrInternal_v0_24__pxrReserved__7SdfPathD2Ev.exit, label %59

59:                                               ; preds = %_ZN32pxrInternal_v0_24__pxrReserved__7UsdPrimD2Ev.exit
  %60 = and i32 %58, 255
  %61 = lshr i32 %58, 8
  %62 = zext nneg i32 %60 to i64
  %63 = getelementptr inbounds [257 x ptr], ptr @_ZN32pxrInternal_v0_24__pxrReserved__8Sdf_PoolINS_15Sdf_PathPrimTagELj24ELj8ELj16384EE13_regionStartsE, i64 0, i64 %62
  %64 = load ptr, ptr %63, align 8
  %65 = mul nuw nsw i32 %61, 24
  %66 = zext nneg i32 %65 to i64
  %67 = getelementptr inbounds i8, ptr %64, i64 %66
  %68 = getelementptr inbounds nuw i8, ptr %67, i64 8
  %69 = atomicrmw sub ptr %68, i32 1 seq_cst, align 4
  %70 = and i32 %69, 2147483647
  %71 = icmp eq i32 %70, 1
  br i1 %71, label %72, label %_ZN32pxrInternal_v0_24__pxrReserved__7SdfPathD2Ev.exit

72:                                               ; preds = %59
  invoke void @_ZNK32pxrInternal_v0_24__pxrReserved__12Sdf_PathNode8_DestroyEv(ptr noundef nonnull align 8 dereferenceable(16) %67)
          to label %_ZN32pxrInternal_v0_24__pxrReserved__7SdfPathD2Ev.exit unwind label %73

73:                                               ; preds = %72
  %74 = landingpad { ptr, i32 }
          catch ptr null
  %75 = extractvalue { ptr, i32 } %74, 0
  call void @__clang_call_terminate(ptr %75) #28
  unreachable

76:                                               ; preds = %16, %14
  %77 = landingpad { ptr, i32 }
          cleanup
  br label %83

78:                                               ; preds = %17
  %79 = landingpad { ptr, i32 }
          cleanup
  br label %82

80:                                               ; preds = %18
  %81 = landingpad { ptr, i32 }
          cleanup
  call void @_ZN32pxrInternal_v0_24__pxrReserved__7UsdPrimD2Ev(ptr noundef nonnull align 8 dereferenceable(32) %9) #26
  br label %82

82:                                               ; preds = %80, %78
  %.pn = phi { ptr, i32 } [ %81, %80 ], [ %79, %78 ]
  call void @_ZN32pxrInternal_v0_24__pxrReserved__31UsdImagingPointInstancerAdapter10_ProtoPrimD2Ev(ptr noundef nonnull align 8 dereferenceable(53) %8) #26
  br label %83

83:                                               ; preds = %82, %76
  %.pn.pn = phi { ptr, i32 } [ %.pn, %82 ], [ %77, %76 ]
  call void @_ZN32pxrInternal_v0_24__pxrReserved__7SdfPathD2Ev(ptr noundef nonnull align 4 dereferenceable(8) %7) #26
  resume { ptr, i32 } %.pn.pn

84:                                               ; preds = %6
  tail call void @_ZNK32pxrInternal_v0_24__pxrReserved__21UsdImagingPrimAdapter18GetLightParamValueERKNS_7UsdPrimERKNS_7SdfPathERKNS_7TfTokenENS_11UsdTimeCodeE(ptr dead_on_unwind writable sret(%"class.pxrInternal_v0_24__pxrReserved__::VtValue") align 8 %0, ptr noundef nonnull align 8 dereferenceable(32) %1, ptr noundef nonnull align 8 dereferenceable(32) %2, ptr noundef nonnull align 4 dereferenceable(8) %3, ptr noundef nonnull align 8 dereferenceable(8) %4, double %5)
  br label %_ZN32pxrInternal_v0_24__pxrReserved__7SdfPathD2Ev.exit

_ZN32pxrInternal_v0_24__pxrReserved__7SdfPathD2Ev.exit: ; preds = %72, %59, %_ZN32pxrInternal_v0_24__pxrReserved__7UsdPrimD2Ev.exit, %84
  ret void
}